target datalayout = "e-m:e-p270:32:32-p271:32:32-p272:64:64-i64:64-i128:128-f80:128-n8:16:32:64-S128"
target triple = "x86_64-pc-linux-gnu"

@bio_err = external global ptr, align 8
@.str.33 = private unnamed_addr constant [4 x i8] c"%s\0A\00", align 1
@bio_keylog = internal global ptr null, align 8
@.str.336 = private unnamed_addr constant [48 x i8] c"Keylog callback is invoked without valid file!\0A\00", align 1

; Function Attrs: nounwind uwtable
define internal void @keylog_callback(ptr noundef %0, ptr noundef %1) #0 {
  %3 = alloca ptr, align 8
  %4 = alloca ptr, align 8
  store ptr %0, ptr %3, align 8, !tbaa !27
  store ptr %1, ptr %4, align 8, !tbaa !21
  %5 = load ptr, ptr @bio_keylog, align 8, !tbaa !14
  %6 = icmp eq ptr %5, null
  br i1 %6, label %7, label %10

7:                                                ; preds = %2
  %8 = load ptr, ptr @bio_err, align 8, !tbaa !14
  %9 = call i32 (ptr, ptr, ...) @BIO_printf(ptr noundef %8, ptr noundef @.str.336)
  br label %16

10:                                               ; preds = %2
  %11 = load ptr, ptr @bio_keylog, align 8, !tbaa !14
  %12 = load ptr, ptr %4, align 8, !tbaa !21
  %13 = call i32 (ptr, ptr, ...) @BIO_printf(ptr noundef %11, ptr noundef @.str.33, ptr noundef %12)
  %14 = load ptr, ptr @bio_keylog, align 8, !tbaa !14
  %15 = call i64 @BIO_ctrl(ptr noundef %14, i32 noundef 11, i64 noundef 0, ptr noundef null)
  br label %16

16:                                               ; preds = %10, %7
  ret void
}