; Function Attrs: nounwind uwtable
define internal void @keylog_callback(ptr readnone captures(none) %0, ptr noundef %1) #0 {
  %3 = load ptr, ptr @bio_keylog, align 8, !tbaa !8
  %4 = icmp eq ptr %3, null
  br i1 %4, label %5, label %8

5:                                                ; preds = %2
  %6 = load ptr, ptr @bio_err, align 8, !tbaa !8
  %7 = tail call i32 (ptr, ptr, ...) @BIO_printf(ptr noundef %6, ptr noundef nonnull @.str.336) #6
  br label %12

8:                                                ; preds = %2
  %9 = tail call i32 (ptr, ptr, ...) @BIO_printf(ptr noundef nonnull %3, ptr noundef nonnull @.str.33, ptr noundef %1) #6
  %10 = load ptr, ptr @bio_keylog, align 8, !tbaa !8
  %11 = tail call i64 @BIO_ctrl(ptr noundef %10, i32 noundef 11, i64 noundef 0, ptr noundef null) #6
  br label %12

12:                                               ; preds = %8, %5
  ret void
}